target datalayout = "e-m:e-p270:32:32-p271:32:32-p272:64:64-i64:64-i128:128-f80:128-n8:16:32:64-S128"
target triple = "x86_64-pc-linux-gnu"

%class.ZPageTable = type { %class.ZGranuleMap }
%class.ZGranuleMap = type { i64, ptr }

@ZAddressOffsetMax = external global i64, align 8
@.str.9 = private unnamed_addr constant [47 x i8] c"src/hotspot/share/memory/allocation.inline.hpp\00", align 1
@.str.10 = private unnamed_addr constant [20 x i8] c"Allocator (reserve)\00", align 1
@.str.11 = private unnamed_addr constant [19 x i8] c"Allocator (commit)\00", align 1
@_ZN6OSInfo26_vm_allocation_granularityE = external global i64, align 8

; Function Attrs: mustprogress nounwind uwtable
define linkonce_odr hidden noundef i64 @_Z10align_downImmTnNSt9enable_ifIXcvbsr3std11is_integralIT_EE5valueEiE4typeELi0EES1_S1_T0_(i64 noundef %0, i64 noundef %1) #1 comdat {
  %3 = alloca i64, align 8
  %4 = alloca i64, align 8
  %5 = alloca i64, align 8
  store i64 %0, ptr %3, align 8
  store i64 %1, ptr %4, align 8
  %6 = load i64, ptr %3, align 8
  %7 = load i64, ptr %4, align 8
  %8 = call noundef i64 @_ZL14alignment_maskImTnNSt9enable_ifIXcvbsr3std11is_integralIT_EE5valueEiE4typeELi0EES1_S1_(i64 noundef %7)
  %9 = xor i64 %8, -1
  %10 = and i64 %6, %9
  store i64 %10, ptr %5, align 8
  %11 = load i64, ptr %5, align 8
  ret i64 %11
}

; Function Attrs: mustprogress nounwind uwtable
define linkonce_odr hidden noundef i64 @_Z12checked_castImmET_T0_(i64 noundef %0) #1 comdat {
  %2 = alloca i64, align 8
  %3 = alloca i64, align 8
  store i64 %0, ptr %2, align 8
  %4 = load i64, ptr %2, align 8
  store i64 %4, ptr %3, align 8
  %5 = load i64, ptr %3, align 8
  ret i64 %5
}

; Function Attrs: mustprogress nounwind uwtable
define internal noundef i64 @_ZL14alignment_maskImTnNSt9enable_ifIXcvbsr3std11is_integralIT_EE5valueEiE4typeELi0EES1_S1_(i64 noundef %0) #1 {
  %2 = alloca i64, align 8
  store i64 %0, ptr %2, align 8
  %3 = load i64, ptr %2, align 8
  %4 = sub i64 %3, 1
  ret i64 %4
}

; Function Attrs: mustprogress nounwind uwtable
define linkonce_odr hidden noundef i64 @_ZN6OSInfo25vm_allocation_granularityEv() #1 comdat align 2 {
  %1 = load i64, ptr @_ZN6OSInfo26_vm_allocation_granularityE, align 8
  ret i64 %1
}

; Function Attrs: mustprogress nounwind uwtable
define linkonce_odr hidden noundef i64 @_Z8align_upImmTnNSt9enable_ifIXcvbsr3std11is_integralIT_EE5valueEiE4typeELi0EES1_S1_T0_(i64 noundef %0, i64 noundef %1) #1 comdat {
  %3 = alloca i64, align 8
  %4 = alloca i64, align 8
  %5 = alloca i64, align 8
  store i64 %0, ptr %3, align 8
  store i64 %1, ptr %4, align 8
  %6 = load i64, ptr %3, align 8
  %7 = load i64, ptr %4, align 8
  %8 = call noundef i64 @_ZL14alignment_maskImTnNSt9enable_ifIXcvbsr3std11is_integralIT_EE5valueEiE4typeELi0EES1_S1_(i64 noundef %7)
  %9 = add i64 %6, %8
  %10 = call noundef i64 @_Z12checked_castImmET_T0_(i64 noundef %9)
  store i64 %10, ptr %5, align 8
  %11 = load i64, ptr %5, align 8
  %12 = load i64, ptr %4, align 8
  %13 = call noundef i64 @_Z10align_downImmTnNSt9enable_ifIXcvbsr3std11is_integralIT_EE5valueEiE4typeELi0EES1_S1_T0_(i64 noundef %11, i64 noundef %12)
  ret i64 %13
}

; Function Attrs: mustprogress nounwind uwtable
define linkonce_odr hidden noundef i64 @_ZN2os25vm_allocation_granularityEv() #1 comdat align 2 {
  %1 = call noundef i64 @_ZN6OSInfo25vm_allocation_granularityEv()
  ret i64 %1
}

; Function Attrs: mustprogress nounwind uwtable
define linkonce_odr hidden noundef i64 @_ZN18MmapArrayAllocatorIP5ZPageE8size_forEm(i64 noundef %0) #1 comdat align 2 {
  %2 = alloca i64, align 8
  %3 = alloca i64, align 8
  %4 = alloca i64, align 8
  store i64 %0, ptr %2, align 8
  %5 = load i64, ptr %2, align 8
  %6 = mul i64 %5, 8
  store i64 %6, ptr %3, align 8
  %7 = call noundef i64 @_ZN2os25vm_allocation_granularityEv()
  store i64 %7, ptr %4, align 8
  %8 = load i64, ptr %3, align 8
  %9 = load i64, ptr %4, align 8
  %10 = call noundef i64 @_Z8align_upImmTnNSt9enable_ifIXcvbsr3std11is_integralIT_EE5valueEiE4typeELi0EES1_S1_T0_(i64 noundef %8, i64 noundef %9)
  ret i64 %10
}

; Function Attrs: mustprogress nounwind uwtable
define linkonce_odr hidden noundef ptr @_ZN18MmapArrayAllocatorIP5ZPageE8allocateEm8MEMFLAGS(i64 noundef %0, i8 noundef zeroext %1) #1 comdat align 2 {
  %3 = alloca i64, align 8
  %4 = alloca i8, align 1
  %5 = alloca i64, align 8
  %6 = alloca ptr, align 8
  store i64 %0, ptr %3, align 8
  store i8 %1, ptr %4, align 1
  %7 = load i64, ptr %3, align 8
  %8 = call noundef i64 @_ZN18MmapArrayAllocatorIP5ZPageE8size_forEm(i64 noundef %7)
  store i64 %8, ptr %5, align 8
  %9 = load i64, ptr %5, align 8
  %10 = load i8, ptr %4, align 1
  %11 = call noundef ptr @_ZN2os14reserve_memoryEmb8MEMFLAGS(i64 noundef %9, i1 noundef zeroext false, i8 noundef zeroext %10)
  store ptr %11, ptr %6, align 8
  %12 = load ptr, ptr %6, align 8
  %13 = icmp eq ptr %12, null
  br i1 %13, label %14, label %18

14:                                               ; preds = %2
  br label %15

15:                                               ; preds = %14
  %16 = load i64, ptr %5, align 8
  call void (ptr, i32, i64, i32, ptr, ...) @_Z23report_vm_out_of_memoryPKcim11VMErrorTypeS0_z(ptr noundef @.str.9, i32 noundef 80, i64 noundef %16, i32 noundef -536870910, ptr noundef @.str.10) #8
  unreachable

17:                                               ; No predecessors!
  br label %18

18:                                               ; preds = %17, %2
  %19 = load ptr, ptr %6, align 8
  %20 = load i64, ptr %5, align 8
  call void @_ZN2os21commit_memory_or_exitEPcmbPKc(ptr noundef %19, i64 noundef %20, i1 noundef zeroext false, ptr noundef @.str.11)
  %21 = load ptr, ptr %6, align 8
  ret ptr %21
}

; Function Attrs: mustprogress nounwind uwtable
define linkonce_odr hidden void @_ZN11ZGranuleMapIP5ZPageEC2Em(ptr noundef nonnull align 8 dereferenceable(16) %0, i64 noundef %1) unnamed_addr #1 comdat align 2 {
  %3 = alloca ptr, align 8
  %4 = alloca i64, align 8
  store ptr %0, ptr %3, align 8
  store i64 %1, ptr %4, align 8
  %5 = load ptr, ptr %3, align 8
  %6 = getelementptr inbounds %class.ZGranuleMap, ptr %5, i32 0, i32 0
  %7 = load i64, ptr %4, align 8
  %8 = lshr i64 %7, 21
  store i64 %8, ptr %6, align 8
  %9 = getelementptr inbounds %class.ZGranuleMap, ptr %5, i32 0, i32 1
  %10 = getelementptr inbounds %class.ZGranuleMap, ptr %5, i32 0, i32 0
  %11 = load i64, ptr %10, align 8
  %12 = call noundef ptr @_ZN18MmapArrayAllocatorIP5ZPageE8allocateEm8MEMFLAGS(i64 noundef %11, i8 noundef zeroext 5)
  store ptr %12, ptr %9, align 8
  ret void
}

; Function Attrs: mustprogress nounwind uwtable
define hidden void @_ZN10ZPageTableC2Ev(ptr noundef nonnull align 8 dereferenceable(16) %0) unnamed_addr #1 align 2 {
  %2 = alloca ptr, align 8
  store ptr %0, ptr %2, align 8
  %3 = load ptr, ptr %2, align 8
  %4 = getelementptr inbounds %class.ZPageTable, ptr %3, i32 0, i32 0
  %5 = load i64, ptr @ZAddressOffsetMax, align 8
  call void @_ZN11ZGranuleMapIP5ZPageEC2Em(ptr noundef nonnull align 8 dereferenceable(16) %4, i64 noundef %5)
  ret void
}